(dp0
S'time_spacing'
p1
F0.1
sS'durations'
p2
(lp3
F0.05
aF0.1
aF0.2
aF0.3
aF0.4
aF0.5
aF0.6
aF0.7
aF0.8
aF0.9
aF1.0
asS'max_period'
p4
F70.0
sS'nbasis'
p5
I150
sS'light_curve_file'
p6
S'/k2_data/lightcurves/c0/202000000/73000/ktwo202073117-c00_lpd-lc.fits'
p7
sS'initial_time'
p8
F1940.0
sS'min_period'
p9
F0.5
sS'basis_file'
p10
S'/k2_data/elcs/c0.h5'
p11
sS'catalog_file'
p12
S'/k2_data/catalogs/epic.h5'
p13
s.